target datalayout = "e-m:e-p270:32:32-p271:32:32-p272:64:64-i64:64-i128:128-f80:128-n8:16:32:64-S128"
target triple = "x86_64-pc-linux-gnu"

%struct.DdManager = type { %struct.DdNode, ptr, ptr, ptr, ptr, ptr, ptr, ptr, i32, i32, double, double, double, i32, i32, i32, i32, i32, i32, ptr, ptr, %struct.DdSubtable, i32, i32, i32, i32, i32, i32, i32, double, i32, i32, i32, ptr, i64, double, i32, ptr, ptr, ptr, ptr, ptr, ptr, ptr, i32, ptr, ptr, ptr, ptr, ptr, ptr, i32, i32, i32, double, i32, i32, i32, i32, double, double, i32, i32, i32, i32, i32, i32, i32, i32, i32, ptr, ptr, i32, i32, i32, i32, i32, i32, ptr, ptr, ptr, ptr, ptr, ptr, ptr, ptr, i32, i64, i64, i64, i32, i64, i64, double, double, double, double, double, double, i32, ptr, ptr, i64 }
%struct.DdNode = type { i32, i32, ptr, %union.anon, i64 }
%union.anon = type { %struct.DdChildren }
%struct.DdChildren = type { ptr, ptr }
%struct.DdSubtable = type { ptr, i32, i32, i32, i32, i32, i32, i32, i32, i32, i32, i32 }

; Function Attrs: nounwind uwtable
define void @Cudd_AutodynEnable(ptr noundef %0, i32 noundef %1) #0 {
  %3 = alloca ptr, align 8
  %4 = alloca i32, align 4
  store ptr %0, ptr %3, align 8
  store i32 %1, ptr %4, align 4
  %5 = load ptr, ptr %3, align 8
  %6 = getelementptr inbounds %struct.DdManager, ptr %5, i32 0, i32 62
  store i32 1, ptr %6, align 4
  %7 = load i32, ptr %4, align 4
  %8 = icmp ne i32 %7, 0
  br i1 %8, label %9, label %13

9:                                                ; preds = %2
  %10 = load i32, ptr %4, align 4
  %11 = load ptr, ptr %3, align 8
  %12 = getelementptr inbounds %struct.DdManager, ptr %11, i32 0, i32 64
  store i32 %10, ptr %12, align 4
  br label %13

13:                                               ; preds = %9, %2
  %14 = load ptr, ptr %3, align 8
  call void @cuddClearDeathRow(ptr noundef %14)
  %15 = load ptr, ptr %3, align 8
  %16 = getelementptr inbounds %struct.DdManager, ptr %15, i32 0, i32 51
  store i32 1, ptr %16, align 8
  %17 = load ptr, ptr %3, align 8
  %18 = getelementptr inbounds %struct.DdManager, ptr %17, i32 0, i32 51
  %19 = load i32, ptr %18, align 8
  %20 = sub nsw i32 %19, 1
  %21 = load ptr, ptr %3, align 8
  %22 = getelementptr inbounds %struct.DdManager, ptr %21, i32 0, i32 53
  store i32 %20, ptr %22, align 8
  %23 = load ptr, ptr %3, align 8
  %24 = getelementptr inbounds %struct.DdManager, ptr %23, i32 0, i32 52
  %25 = load i32, ptr %24, align 4
  %26 = load ptr, ptr %3, align 8
  %27 = getelementptr inbounds %struct.DdManager, ptr %26, i32 0, i32 53
  %28 = load i32, ptr %27, align 8
  %29 = icmp ugt i32 %25, %28
  br i1 %29, label %30, label %33

30:                                               ; preds = %13
  %31 = load ptr, ptr %3, align 8
  %32 = getelementptr inbounds %struct.DdManager, ptr %31, i32 0, i32 52
  store i32 0, ptr %32, align 4
  br label %33

33:                                               ; preds = %30, %13
  %34 = load ptr, ptr %3, align 8
  %35 = getelementptr inbounds %struct.DdManager, ptr %34, i32 0, i32 50
  %36 = load ptr, ptr %35, align 8
  %37 = icmp ne ptr %36, null
  br i1 %37, label %38, label %48

38:                                               ; preds = %33
  %39 = load ptr, ptr %3, align 8
  %40 = getelementptr inbounds %struct.DdManager, ptr %39, i32 0, i32 50
  %41 = load ptr, ptr %40, align 8
  %42 = load ptr, ptr %3, align 8
  %43 = getelementptr inbounds %struct.DdManager, ptr %42, i32 0, i32 51
  %44 = load i32, ptr %43, align 8
  %45 = sext i32 %44 to i64
  %46 = mul i64 8, %45
  %47 = call ptr @realloc(ptr noundef %41, i64 noundef %46) #9
  br label %55

48:                                               ; preds = %33
  %49 = load ptr, ptr %3, align 8
  %50 = getelementptr inbounds %struct.DdManager, ptr %49, i32 0, i32 51
  %51 = load i32, ptr %50, align 8
  %52 = sext i32 %51 to i64
  %53 = mul i64 8, %52
  %54 = call noalias ptr @malloc(i64 noundef %53) #7
  br label %55

55:                                               ; preds = %48, %38
  %56 = phi ptr [ %47, %38 ], [ %54, %48 ]
  %57 = load ptr, ptr %3, align 8
  %58 = getelementptr inbounds %struct.DdManager, ptr %57, i32 0, i32 50
  store ptr %56, ptr %58, align 8
  ret void
}