; Function Attrs: nounwind uwtable
define void @Cudd_AutodynEnable(ptr noundef initializes((484, 488)) %0, i32 noundef %1) local_unnamed_addr #0 {
  %3 = getelementptr inbounds nuw i8, ptr %0, i64 484
  store i32 1, ptr %3, align 4
  %.not = icmp eq i32 %1, 0
  br i1 %.not, label %6, label %4

4:                                                ; preds = %2
  %5 = getelementptr inbounds nuw i8, ptr %0, i64 492
  store i32 %1, ptr %5, align 4
  br label %6

6:                                                ; preds = %4, %2
  tail call void @cuddClearDeathRow(ptr noundef nonnull %0) #20
  %7 = getelementptr inbounds nuw i8, ptr %0, i64 424
  store i32 1, ptr %7, align 8
  %8 = getelementptr inbounds nuw i8, ptr %0, i64 432
  store i32 0, ptr %8, align 8
  %9 = getelementptr inbounds nuw i8, ptr %0, i64 428
  %10 = load i32, ptr %9, align 4
  %.not16 = icmp eq i32 %10, 0
  br i1 %.not16, label %12, label %11

11:                                               ; preds = %6
  store i32 0, ptr %9, align 4
  br label %12

12:                                               ; preds = %11, %6
  %13 = getelementptr inbounds nuw i8, ptr %0, i64 416
  %14 = load ptr, ptr %13, align 8
  %.not17 = icmp eq ptr %14, null
  br i1 %.not17, label %17, label %15

15:                                               ; preds = %12
  %16 = tail call dereferenceable_or_null(8) ptr @realloc(ptr noundef nonnull %14, i64 noundef 8) #22
  br label %19

17:                                               ; preds = %12
  %18 = tail call noalias dereferenceable_or_null(8) ptr @malloc(i64 noundef 8) #21
  br label %19

19:                                               ; preds = %17, %15
  %20 = phi ptr [ %16, %15 ], [ %18, %17 ]
  store ptr %20, ptr %13, align 8
  ret void
}